target datalayout = "e-m:e-p270:32:32-p271:32:32-p272:64:64-i64:64-i128:128-f80:128-n8:16:32:64-S128"
target triple = "x86_64-pc-linux-gnu"

%"class.gmx::(anonymous namespace)::TimeOptionScaler" = type { %"class.gmx::OptionsModifyingTypeVisitor", double }
%"class.gmx::OptionsModifyingTypeVisitor" = type { %"class.gmx::OptionsModifyingVisitor" }
%"class.gmx::OptionsModifyingVisitor" = type { ptr }

; Function Attrs: mustprogress uwtable
define internal void @_ZN3gmx12_GLOBAL__N_116TimeOptionScalerINS_16DoubleOptionInfoEE15visitOptionTypeEPS2_(ptr noundef nonnull align 8 dereferenceable(16) %0, ptr noundef %1) unnamed_addr #1 align 2 {
  %3 = alloca ptr, align 8
  %4 = alloca ptr, align 8
  store ptr %0, ptr %3, align 8, !tbaa !81
  store ptr %1, ptr %4, align 8, !tbaa !319
  %5 = load ptr, ptr %3, align 8
  %6 = load ptr, ptr %4, align 8, !tbaa !319
  %7 = call noundef zeroext i1 @_ZNK3gmx16DoubleOptionInfo6isTimeEv(ptr noundef nonnull align 8 dereferenceable(16) %6)
  br i1 %7, label %8, label %12

8:                                                ; preds = %2
  %9 = load ptr, ptr %4, align 8, !tbaa !319
  %10 = getelementptr inbounds nuw %"class.gmx::(anonymous namespace)::TimeOptionScaler", ptr %5, i32 0, i32 1
  %11 = load double, ptr %10, align 8, !tbaa !83
  call void @_ZN3gmx16DoubleOptionInfo14setScaleFactorEd(ptr noundef nonnull align 8 dereferenceable(16) %9, double noundef %11)
  br label %12

12:                                               ; preds = %8, %2
  ret void
}