; Function Attrs: mustprogress uwtable
define internal void @_ZN3gmx12_GLOBAL__N_116TimeOptionScalerINS_16DoubleOptionInfoEE15visitOptionTypeEPS2_(ptr noundef nonnull readonly align 8 captures(none) dereferenceable(16) %0, ptr noundef nonnull %1) unnamed_addr #4 align 2 {
  %3 = tail call noundef zeroext i1 @_ZNK3gmx16DoubleOptionInfo6isTimeEv(ptr noundef nonnull align 8 dereferenceable(16) %1)
  br i1 %3, label %4, label %7

4:                                                ; preds = %2
  %5 = getelementptr inbounds nuw i8, ptr %0, i64 8
  %6 = load double, ptr %5, align 8, !tbaa !76
  tail call void @_ZN3gmx16DoubleOptionInfo14setScaleFactorEd(ptr noundef nonnull align 8 dereferenceable(16) %1, double noundef %6)
  br label %7

7:                                                ; preds = %4, %2
  ret void
}